target datalayout = "e-m:e-p270:32:32-p271:32:32-p272:64:64-i64:64-i128:128-f80:128-n8:16:32:64-S128"
target triple = "x86_64-pc-linux-gnu"

%"class.std::__cxx11::basic_string" = type { %"struct.std::__cxx11::basic_string<char>::_Alloc_hider", i64, %union.anon }
%"struct.std::__cxx11::basic_string<char>::_Alloc_hider" = type { ptr }
%union.anon = type { i64, [8 x i8] }
%"class.std::optional.67" = type { %"struct.std::_Optional_base.68" }
%"struct.std::_Optional_base.68" = type { %"struct.std::_Optional_payload.70" }
%"struct.std::_Optional_payload.70" = type { %"struct.std::_Optional_payload.base.74", [7 x i8] }
%"struct.std::_Optional_payload.base.74" = type { %"struct.std::_Optional_payload_base.base.73" }
%"struct.std::_Optional_payload_base.base.73" = type <{ %"union.std::_Optional_payload_base<std::__cxx11::basic_string<char>>::_Storage", i8 }>
%"union.std::_Optional_payload_base<std::__cxx11::basic_string<char>>::_Storage" = type { %"class.std::__cxx11::basic_string" }
%"class.std::__shared_count" = type { ptr }
%"class.std::shared_ptr.41" = type { %"class.std::__shared_ptr.42" }
%"class.std::__shared_ptr.42" = type { ptr, %"class.std::__shared_count" }
%"class.nix::BackedStringView" = type { %"class.std::variant" }
%"class.std::variant" = type { %"struct.std::__detail::__variant::_Variant_base.base", [7 x i8] }
%"struct.std::__detail::__variant::_Variant_base.base" = type { %"struct.std::__detail::__variant::_Move_assign_base.base" }
%"struct.std::__detail::__variant::_Move_assign_base.base" = type { %"struct.std::__detail::__variant::_Copy_assign_base.base" }
%"struct.std::__detail::__variant::_Copy_assign_base.base" = type { %"struct.std::__detail::__variant::_Move_ctor_base.base" }
%"struct.std::__detail::__variant::_Move_ctor_base.base" = type { %"struct.std::__detail::__variant::_Copy_ctor_base.base" }
%"struct.std::__detail::__variant::_Copy_ctor_base.base" = type { %"struct.std::__detail::__variant::_Variant_storage.base" }
%"struct.std::__detail::__variant::_Variant_storage.base" = type <{ %"union.std::__detail::__variant::_Variadic_union", i8 }>
%"union.std::__detail::__variant::_Variadic_union" = type { %"union.std::__detail::__variant::_Variadic_union.77", [16 x i8] }
%"union.std::__detail::__variant::_Variadic_union.77" = type { %"struct.std::__detail::__variant::_Uninitialized.78" }
%"struct.std::__detail::__variant::_Uninitialized.78" = type { %"class.std::basic_string_view" }
%"class.std::basic_string_view" = type { i64, ptr }
%"struct.nix::Sink" = type { ptr }
%"struct.nix::Source" = type { ptr }
%"class.std::optional.83" = type { %"struct.std::_Optional_base.84" }
%"struct.std::_Optional_base.84" = type { %"struct.std::_Optional_payload.86" }
%"struct.std::_Optional_payload.86" = type { %"struct.std::_Optional_payload_base.87" }
%"struct.std::_Optional_payload_base.87" = type { %"union.std::_Optional_payload_base<nix::TrustedFlag>::_Storage", i8 }
%"union.std::_Optional_payload_base<nix::TrustedFlag>::_Storage" = type { %"struct.std::_Optional_payload_base<nix::TrustedFlag>::_Empty_byte" }
%"struct.std::_Optional_payload_base<nix::TrustedFlag>::_Empty_byte" = type { i8 }
%"struct.nix::RemoteStore::Connection" = type { ptr, %"struct.nix::FdSink", %"struct.nix::FdSource", i32, %"class.std::optional.83", [2 x i8], %"class.std::optional.67", %"class.std::chrono::time_point" }
%"struct.nix::FdSink" = type <{ %"struct.nix::BufferedSink", i32, [4 x i8], i64, i8, [7 x i8] }>
%"struct.nix::BufferedSink" = type { %"struct.nix::Sink", i64, i64, %"class.std::unique_ptr" }
%"class.std::unique_ptr" = type { %"struct.std::__uniq_ptr_data" }
%"struct.std::__uniq_ptr_data" = type { %"class.std::__uniq_ptr_impl" }
%"class.std::__uniq_ptr_impl" = type { %"class.std::tuple" }
%"class.std::tuple" = type { %"struct.std::_Tuple_impl" }
%"struct.std::_Tuple_impl" = type { %"struct.std::_Head_base.82" }
%"struct.std::_Head_base.82" = type { ptr }
%"struct.nix::FdSource" = type <{ %"struct.nix::BufferedSource", i32, [4 x i8], i64, %"class.nix::BackedStringView", i8, [7 x i8] }>
%"struct.nix::BufferedSource" = type { %"struct.nix::Source", i64, i64, i64, %"class.std::unique_ptr" }
%"class.std::chrono::time_point" = type { %"class.std::chrono::duration" }
%"class.std::chrono::duration" = type { i64 }
%"struct.nix::RemoteStore::ConnectionHandle" = type { %"class.nix::Pool<nix::RemoteStore::Connection>::Handle", i8, [7 x i8] }
%"class.nix::Pool<nix::RemoteStore::Connection>::Handle" = type <{ ptr, %"class.std::shared_ptr.41", i8, [7 x i8] }>

@_ZN3nix11RemoteStore16ConnectionHandleD1Ev = unnamed_addr alias void (ptr), ptr @_ZN3nix11RemoteStore16ConnectionHandleD2Ev

; Function Attrs: mustprogress nounwind uwtable
define linkonce_odr noundef ptr @_ZNKSt12__shared_ptrIN3nix11RemoteStore10ConnectionELN9__gnu_cxx12_Lock_policyE2EE3getEv(ptr noundef nonnull align 8 dereferenceable(16) %0) #2 comdat align 2 {
  %2 = alloca ptr, align 8
  store ptr %0, ptr %2, align 8
  %3 = load ptr, ptr %2, align 8
  %4 = getelementptr inbounds %"class.std::__shared_ptr.42", ptr %3, i32 0, i32 0
  %5 = load ptr, ptr %4, align 8
  ret ptr %5
}

; Function Attrs: mustprogress nounwind uwtable
define linkonce_odr noundef ptr @_ZNKSt19__shared_ptr_accessIN3nix11RemoteStore10ConnectionELN9__gnu_cxx12_Lock_policyE2ELb0ELb0EE6_M_getEv(ptr noundef nonnull align 1 dereferenceable(1) %0) #2 comdat align 2 {
  %2 = alloca ptr, align 8
  store ptr %0, ptr %2, align 8
  %3 = load ptr, ptr %2, align 8
  %4 = call noundef ptr @_ZNKSt12__shared_ptrIN3nix11RemoteStore10ConnectionELN9__gnu_cxx12_Lock_policyE2EE3getEv(ptr noundef nonnull align 8 dereferenceable(16) %3) #1
  ret ptr %4
}

; Function Attrs: mustprogress nounwind uwtable
define linkonce_odr noundef nonnull align 8 dereferenceable(224) ptr @_ZNKSt19__shared_ptr_accessIN3nix11RemoteStore10ConnectionELN9__gnu_cxx12_Lock_policyE2ELb0ELb0EEdeEv(ptr noundef nonnull align 1 dereferenceable(1) %0) #2 comdat align 2 {
  %2 = alloca ptr, align 8
  store ptr %0, ptr %2, align 8
  %3 = load ptr, ptr %2, align 8
  br label %4

4:                                                ; preds = %1
  br label %5

5:                                                ; preds = %4
  br label %6

6:                                                ; preds = %5
  %7 = call noundef ptr @_ZNKSt19__shared_ptr_accessIN3nix11RemoteStore10ConnectionELN9__gnu_cxx12_Lock_policyE2ELb0ELb0EE6_M_getEv(ptr noundef nonnull align 1 dereferenceable(1) %3) #1
  ret ptr %7
}

; Function Attrs: mustprogress nounwind uwtable
define linkonce_odr noundef nonnull align 8 dereferenceable(224) ptr @_ZN3nix4PoolINS_11RemoteStore10ConnectionEE6HandledeEv(ptr noundef nonnull align 8 dereferenceable(25) %0) #2 comdat align 2 {
  %2 = alloca ptr, align 8
  store ptr %0, ptr %2, align 8
  %3 = load ptr, ptr %2, align 8
  %4 = getelementptr inbounds %"class.nix::Pool<nix::RemoteStore::Connection>::Handle", ptr %3, i32 0, i32 1
  %5 = call noundef nonnull align 8 dereferenceable(224) ptr @_ZNKSt19__shared_ptr_accessIN3nix11RemoteStore10ConnectionELN9__gnu_cxx12_Lock_policyE2ELb0ELb0EEdeEv(ptr noundef nonnull align 1 dereferenceable(1) %4) #1
  ret ptr %5
}

; Function Attrs: mustprogress uwtable
define linkonce_odr noundef ptr @_ZN3nix11RemoteStore16ConnectionHandleptEv(ptr noundef nonnull align 8 dereferenceable(33) %0) #5 comdat align 2 {
  %2 = alloca ptr, align 8
  store ptr %0, ptr %2, align 8
  %3 = load ptr, ptr %2, align 8
  %4 = getelementptr inbounds %"struct.nix::RemoteStore::ConnectionHandle", ptr %3, i32 0, i32 0
  %5 = call noundef nonnull align 8 dereferenceable(224) ptr @_ZN3nix4PoolINS_11RemoteStore10ConnectionEE6HandledeEv(ptr noundef nonnull align 8 dereferenceable(25) %4)
  ret ptr %5
}

; Function Attrs: mustprogress uwtable
define i16 @_ZN3nix11RemoteStore15isTrustedClientEv(ptr noundef nonnull align 8 dereferenceable(25) %0) unnamed_addr #5 align 2 personality ptr @__gxx_personality_v0 {
  %2 = alloca %"class.std::optional.83", align 1
  %3 = alloca ptr, align 8
  %4 = alloca %"struct.nix::RemoteStore::ConnectionHandle", align 8
  %5 = alloca ptr, align 8
  %6 = alloca i32, align 4
  store ptr %0, ptr %3, align 8
  %7 = load ptr, ptr %3, align 8
  call void @_ZN3nix11RemoteStore13getConnectionEv(ptr dead_on_unwind writable sret(%"struct.nix::RemoteStore::ConnectionHandle") align 8 %4, ptr noundef nonnull align 8 dereferenceable(25) %7)
  %8 = invoke noundef ptr @_ZN3nix11RemoteStore16ConnectionHandleptEv(ptr noundef nonnull align 8 dereferenceable(33) %4)
          to label %9 unwind label %15

9:                                                ; preds = %1
  %10 = getelementptr inbounds %"struct.nix::RemoteStore::Connection", ptr %8, i32 0, i32 4
  call void @llvm.memcpy.p0.p0.i64(ptr align 1 %2, ptr align 4 %10, i64 2, i1 false)
  call void @_ZN3nix11RemoteStore16ConnectionHandleD1Ev(ptr noundef nonnull align 8 dereferenceable(33) %4) #1
  %11 = getelementptr inbounds %"class.std::optional.83", ptr %2, i32 0, i32 0
  %12 = getelementptr inbounds %"struct.std::_Optional_base.84", ptr %11, i32 0, i32 0
  %13 = getelementptr inbounds %"struct.std::_Optional_payload.86", ptr %12, i32 0, i32 0
  %14 = load i16, ptr %13, align 1
  ret i16 %14

15:                                               ; preds = %1
  %16 = landingpad { ptr, i32 }
          cleanup
  %17 = extractvalue { ptr, i32 } %16, 0
  store ptr %17, ptr %5, align 8
  %18 = extractvalue { ptr, i32 } %16, 1
  store i32 %18, ptr %6, align 4
  call void @_ZN3nix11RemoteStore16ConnectionHandleD1Ev(ptr noundef nonnull align 8 dereferenceable(33) %4) #1
  br label %19

19:                                               ; preds = %15
  %20 = load ptr, ptr %5, align 8
  %21 = load i32, ptr %6, align 4
  %22 = insertvalue { ptr, i32 } poison, ptr %20, 0
  %23 = insertvalue { ptr, i32 } %22, i32 %21, 1
  resume { ptr, i32 } %23
}

; Function Attrs: uwtable
define i16 @_ZTv0_n352_N3nix11RemoteStore15isTrustedClientEv(ptr noundef %0) unnamed_addr #0 align 2 {
  %2 = alloca %"class.std::optional.83", align 1
  %3 = alloca ptr, align 8
  store ptr %0, ptr %3, align 8
  %4 = load ptr, ptr %3, align 8
  %5 = load ptr, ptr %4, align 8
  %6 = getelementptr inbounds i8, ptr %5, i64 -352
  %7 = load i64, ptr %6, align 8
  %8 = getelementptr inbounds i8, ptr %4, i64 %7
  %9 = tail call i16 @_ZN3nix11RemoteStore15isTrustedClientEv(ptr noundef nonnull align 8 dereferenceable(25) %8)
  %10 = getelementptr inbounds %"class.std::optional.83", ptr %2, i32 0, i32 0
  %11 = getelementptr inbounds %"struct.std::_Optional_base.84", ptr %10, i32 0, i32 0
  %12 = getelementptr inbounds %"struct.std::_Optional_payload.86", ptr %11, i32 0, i32 0
  store i16 %9, ptr %12, align 1
  %13 = getelementptr inbounds %"class.std::optional.83", ptr %2, i32 0, i32 0
  %14 = getelementptr inbounds %"struct.std::_Optional_base.84", ptr %13, i32 0, i32 0
  %15 = getelementptr inbounds %"struct.std::_Optional_payload.86", ptr %14, i32 0, i32 0
  %16 = load i16, ptr %15, align 1
  ret i16 %16
}