; Function Attrs: uwtable
define i16 @_ZTv0_n352_N3nix11RemoteStore15isTrustedClientEv(ptr nocapture noundef readonly %0) unnamed_addr #4 align 2 personality ptr @__gxx_personality_v0 {
  %2 = alloca %"struct.nix::RemoteStore::ConnectionHandle", align 8
  %3 = load ptr, ptr %0, align 8
  %4 = getelementptr inbounds i8, ptr %3, i64 -352
  %5 = load i64, ptr %4, align 8
  %6 = getelementptr inbounds i8, ptr %0, i64 %5
  call void @llvm.lifetime.start.p0(i64 40, ptr nonnull %2)
  call void @_ZN3nix11RemoteStore13getConnectionEv(ptr dead_on_unwind nonnull writable sret(%"struct.nix::RemoteStore::ConnectionHandle") align 8 %2, ptr noundef nonnull align 8 dereferenceable(25) %6)
  %7 = getelementptr inbounds i8, ptr %2, i64 8
  %8 = load ptr, ptr %7, align 8
  %9 = getelementptr inbounds i8, ptr %8, i64 172
  %.sroa.0.0.copyload.i = load i16, ptr %9, align 4
  call void @_ZN3nix11RemoteStore16ConnectionHandleD1Ev(ptr noundef nonnull align 8 dereferenceable(33) %2) #29
  call void @llvm.lifetime.end.p0(i64 40, ptr nonnull %2)
  ret i16 %.sroa.0.0.copyload.i
}